Certificate:
    Data:
        Version: 3 (0x2)
        Serial Number: 6 (0x6)
    Signature Algorithm: sha256WithRSAEncryption
        Issuer: C=cn, ST=guangdong, L=shengzhen, O=myca, OU=qa, CN=test.default.ca/emailAddress=jin.zheng@shopee.com
        Validity
            Not Before: Nov  4 08:53:10 2020 GMT
            Not After : Nov  4 08:53:10 2021 GMT
        Subject: 
        Subject Public Key Info:
            Public Key Algorithm: rsaEncryption
                Public-Key: (4096 bit)
                Modulus:
                    00:9e:e8:71:4a:7e:50:85:7b:7e:cf:aa:15:0a:11:
                    39:d6:e1:9b:0e:42:27:84:fd:26:2b:65:c9:35:00:
                    4a:6a:c5:fe:b8:e2:ef:2a:ec:a3:55:42:e9:f1:1c:
                    65:6c:80:77:73:57:30:83:f0:96:12:0e:b1:ae:c2:
                    a0:e8:c9:fc:8d:a2:61:4d:d1:31:99:52:ad:a8:a9:
                    e3:4e:11:bf:47:34:b8:7f:0d:2d:de:71:a2:a7:46:
                    3a:e2:86:a8:c4:fd:61:f6:97:ac:a0:64:b4:af:c4:
                    15:d5:7b:e7:4d:36:db:c3:a9:76:64:0a:2d:8e:df:
                    f5:f4:b3:6d:c4:46:6d:98:7e:14:26:c2:36:81:4a:
                    18:1b:22:12:89:1c:62:f6:a7:a8:b1:48:a3:5b:5c:
                    6b:e3:74:61:a5:2a:24:b5:5a:2e:ba:4e:3c:94:fe:
                    b9:81:6e:78:c4:ef:34:7c:e9:8e:bd:d4:b1:8a:ff:
                    73:24:6c:c6:0c:0a:c2:1d:68:d4:44:88:89:b7:6d:
                    0a:dd:a0:c1:2f:dd:13:ca:a2:26:28:4a:72:93:7a:
                    d8:f6:6e:e0:e6:c8:04:20:f3:86:6f:b0:fc:9b:48:
                    c1:3a:e7:39:cf:ba:5a:db:02:e1:61:09:b0:4e:fe:
                    0e:41:53:3d:35:18:af:16:57:73:d0:0d:99:3e:43:
                    ee:84:a0:62:3a:d4:14:13:dc:a3:07:17:67:71:14:
                    15:d9:53:16:8a:37:d0:72:00:b5:cb:a6:91:ce:72:
                    f5:a5:0c:88:78:c1:87:9b:03:82:aa:b6:da:6d:b8:
                    5f:5a:11:d8:b2:34:8d:7b:18:ad:48:f5:5b:4c:2f:
                    d4:61:af:df:37:b4:e9:09:be:22:46:ce:a8:28:ef:
                    2d:02:d3:96:5c:b4:e6:fa:87:e7:85:b2:95:ca:39:
                    b1:1e:a1:ac:65:e3:4f:f0:89:86:2b:35:19:7c:fb:
                    7c:f0:77:db:5e:f7:ce:c7:3a:93:c0:e9:ed:23:03:
                    37:25:74:f0:d7:44:ca:3e:ed:64:cc:e8:6f:b9:de:
                    a5:d1:e6:f4:c7:af:7a:00:74:6f:77:aa:31:d9:b9:
                    60:92:32:8f:cf:de:95:eb:67:d1:51:67:12:4b:b9:
                    7e:36:67:69:ae:96:05:e7:4b:1a:83:4c:f8:f6:09:
                    67:73:fd:de:e7:00:70:8c:26:37:dd:e0:1a:5a:00:
                    31:3f:5c:fc:68:bc:fa:84:f2:58:bd:b6:89:a9:bf:
                    20:30:e1:6d:f2:19:8e:0a:39:38:b9:d3:14:a4:bd:
                    78:16:93:df:0f:ea:4d:9b:44:c1:ba:75:df:30:c9:
                    16:2d:78:cf:30:c5:4f:65:d8:31:30:76:24:22:b2:
                    fc:a1:fd
                Exponent: 65537 (0x10001)
    Signature Algorithm: sha256WithRSAEncryption
         9b:be:f7:0f:a1:9f:97:ba:eb:27:3c:b4:fd:e2:3f:d7:47:08:
         d9:2d:33:aa:4d:36:e9:7a:cb:ed:46:08:24:97:90:c8:17:f5:
         76:73:b9:0a:12:f6:4c:05:af:fa:fb:60:b1:d1:36:45:6c:3b:
         c1:68:85:89:65:26:f0:75:81:67:cc:39:89:96:8f:59:59:a6:
         a6:6a:be:e3:31:a7:8d:71:73:e7:0e:6f:f4:81:1a:f9:64:03:
         b2:c2:06:93:03:5c:6c:4b:25:81:e5:2f:03:51:15:79:28:2c:
         a9:15:75:92:b1:da:1d:1e:4c:41:cc:37:56:ec:c2:5f:50:fb:
         60:2d:af:cf:19:5e:bd:c9:85:ea:70:6a:9d:4c:77:e7:6c:7c:
         53:54:5a:6a:c9:64:f9:c0:d5:46:61:5b:86:e3:55:d0:c1:73:
         79:70:98:16:0b:f2:30:a2:d0:42:1b:5c:f5:94:83:13:3c:3a:
         cd:cc:0a:c7:75:7e:b4:3a:59:82:68:9a:b9:47:8d:ab:1a:ee:
         36:b8:14:a6:32:51:95:f2:1e:61:3e:aa:8a:c8:3c:91:f8:75:
         d2:63:4c:78:58:57:3b:54:05:70:4b:e6:cb:2a:8f:a1:70:a0:
         ca:e6:52:88:4c:51:f9:d7:5c:a6:0b:cf:f3:13:cd:ee:5c:80:
         02:d5:ea:8c:1f:ca:11:03:d0:8a:22:a6:c8:95:d8:40:d0:20:
         d8:94:84:cd:91:5a:e0:26:f7:df:37:81:57:2f:26:56:3e:84:
         e4:5c:2b:b9:f3:93:11:dc:69:ca:77:cd:d7:12:5c:d4:76:54:
         fb:c0:94:c4:ba:05:9f:3e:ad:ee:df:08:94:91:7b:3e:8c:1c:
         50:05:5d:59:e8:02:b3:35:05:b3:a6:58:1c:96:1c:b0:06:a8:
         0f:10:5f:e6:89:5d:21:ff:34:d8:d2:29:e1:a6:b3:b6:23:6f:
         7a:82:c3:47:72:6f:bf:7a:28:42:67:fa:0e:48:9c:af:27:32:
         51:c2:47:73:c1:f9:89:39:b8:1f:cf:6f:45:4a:36:2c:9f:19:
         67:de:2e:73:51:28:87:73:ad:b8:d8:fc:57:1b:49:d4:e7:39:
         d3:16:85:34:02:72:c2:39:11:33:31:bc:c3:2a:f3:bd:62:29:
         5a:f5:f5:20:ea:94:e8:66:16:4e:dc:4d:44:2d:e6:4b:ee:e9:
         d2:a6:96:c3:5f:c5:19:d6:27:d9:f1:19:6e:9b:f9:c7:30:67:
         56:70:e1:bd:d9:77:b6:3c:65:e0:3d:2e:88:dc:40:f1:cf:10:
         91:32:22:fc:12:d9:45:25:9c:7c:5b:8c:84:52:14:9c:7a:68:
         a0:92:6e:ff:c9:ff:09:9a
-----BEGIN CERTIFICATE-----
MIIFCjCCAvKgAwIBAgIBBjANBgkqhkiG9w0BAQsFADCBkDELMAkGA1UEBhMCY24x
EjAQBgNVBAgMCWd1YW5nZG9uZzESMBAGA1UEBwwJc2hlbmd6aGVuMQ0wCwYDVQQK
DARteWNhMQswCQYDVQQLDAJxYTEYMBYGA1UEAwwPdGVzdC5kZWZhdWx0LmNhMSMw
IQYJKoZIhvcNAQkBFhRqaW4uemhlbmdAc2hvcGVlLmNvbTAeFw0yMDExMDQwODUz
MTBaFw0yMTExMDQwODUzMTBaMAAwggIiMA0GCSqGSIb3DQEBAQUAA4ICDwAwggIK
AoICAQCe6HFKflCFe37PqhUKETnW4ZsOQieE/SYrZck1AEpqxf644u8q7KNVQunx
HGVsgHdzVzCD8JYSDrGuwqDoyfyNomFN0TGZUq2oqeNOEb9HNLh/DS3ecaKnRjri
hqjE/WH2l6ygZLSvxBXVe+dNNtvDqXZkCi2O3/X0s23ERm2YfhQmwjaBShgbIhKJ
HGL2p6ixSKNbXGvjdGGlKiS1Wi66TjyU/rmBbnjE7zR86Y691LGK/3MkbMYMCsId
aNREiIm3bQrdoMEv3RPKoiYoSnKTetj2buDmyAQg84ZvsPybSME65znPulrbAuFh
CbBO/g5BUz01GK8WV3PQDZk+Q+6EoGI61BQT3KMHF2dxFBXZUxaKN9ByALXLppHO
cvWlDIh4wYebA4KqttptuF9aEdiyNI17GK1I9VtML9Rhr983tOkJviJGzqgo7y0C
05ZctOb6h+eFspXKObEeoaxl40/wiYYrNRl8+3zwd9te987HOpPA6e0jAzcldPDX
RMo+7WTM6G+53qXR5vTHr3oAdG93qjHZuWCSMo/P3pXrZ9FRZxJLuX42Z2mulgXn
SxqDTPj2CWdz/d7nAHCMJjfd4BpaADE/XPxovPqE8li9tompvyAw4W3yGY4KOTi5
0xSkvXgWk98P6k2bRMG6dd8wyRYteM8wxU9l2DEwdiQisvyh/QIDAQABMA0GCSqG
SIb3DQEBCwUAA4ICAQCbvvcPoZ+XuusnPLT94j/XRwjZLTOqTTbpesvtRggkl5DI
F/V2c7kKEvZMBa/6+2Cx0TZFbDvBaIWJZSbwdYFnzDmJlo9ZWaamar7jMaeNcXPn
Dm/0gRr5ZAOywgaTA1xsSyWB5S8DURV5KCypFXWSsdodHkxBzDdW7MJfUPtgLa/P
GV69yYXqcGqdTHfnbHxTVFpqyWT5wNVGYVuG41XQwXN5cJgWC/IwotBCG1z1lIMT
PDrNzArHdX60OlmCaJq5R42rGu42uBSmMlGV8h5hPqqKyDyR+HXSY0x4WFc7VAVw
S+bLKo+hcKDK5lKITFH511ymC8/zE83uXIAC1eqMH8oRA9CKIqbIldhA0CDYlITN
kVrgJvffN4FXLyZWPoTkXCu585MR3GnKd83XElzUdlT7wJTEugWfPq3u3wiUkXs+
jBxQBV1Z6AKzNQWzplgclhywBqgPEF/miV0h/zTY0inhprO2I296gsNHcm+/eihC
Z/oOSJyvJzJRwkdzwfmJObgfz29FSjYsnxln3i5zUSiHc6242PxXG0nU5znTFoU0
AnLCOREzMbzDKvO9Yila9fUg6pToZhZO3E1ELeZL7unSppbDX8UZ1ifZ8Rlum/nH
MGdWcOG92Xe2PGXgPS6I3EDxzxCRMiL8EtlFJZx8W4yEUhScemigkm7/yf8Jmg==
-----END CERTIFICATE-----
